; ModuleID = '36/835.c'
source_filename = "36/835.c"
target datalayout = "e-m:e-p270:32:32-p271:32:32-p272:64:64-i64:64-f80:128-n8:16:32:64-S128"
target triple = "x86_64-pc-linux-gnu"

@.str = private unnamed_addr constant [5 x i8] c"%s%s\00", align 1
@.str.1 = private unnamed_addr constant [4 x i8] c"NO\0A\00", align 1
@.str.2 = private unnamed_addr constant [5 x i8] c"YES\0A\00", align 1

; Function Attrs: noinline nounwind uwtable
define dso_local void @main() #0 {
  %1 = alloca [100 x i8], align 16
  %2 = alloca [100 x i8], align 16
  %3 = alloca i32, align 4
  %4 = alloca i32, align 4
  %5 = alloca i32, align 4
  %6 = getelementptr inbounds [100 x i8], [100 x i8]* %1, i64 0, i64 0
  %7 = getelementptr inbounds [100 x i8], [100 x i8]* %2, i64 0, i64 0
  %8 = call i32 (i8*, ...) @__isoc99_scanf(i8* getelementptr inbounds ([5 x i8], [5 x i8]* @.str, i64 0, i64 0), i8* %6, i8* %7)
  %9 = getelementptr inbounds [100 x i8], [100 x i8]* %1, i64 0, i64 0
  %10 = call i64 @strlen(i8* %9) #4
  %11 = trunc i64 %10 to i32
  store i32 %11, i32* %3, align 4
  %12 = getelementptr inbounds [100 x i8], [100 x i8]* %2, i64 0, i64 0
  %13 = call i64 @strlen(i8* %12) #4
  %14 = trunc i64 %13 to i32
  store i32 %14, i32* %4, align 4
  %15 = load i32, i32* %3, align 4
  %16 = load i32, i32* %4, align 4
  %17 = icmp ne i32 %15, %16
  br i1 %17, label %18, label %20

18:                                               ; preds = %0
  %19 = call i32 (i8*, ...) @printf(i8* getelementptr inbounds ([4 x i8], [4 x i8]* @.str.1, i64 0, i64 0))
  br label %24

20:                                               ; preds = %0
  %21 = getelementptr inbounds [100 x i8], [100 x i8]* %1, i64 0, i64 0
  %22 = getelementptr inbounds [100 x i8], [100 x i8]* %2, i64 0, i64 0
  %23 = call i32 @check(i8* %21, i8* %22)
  store i32 %23, i32* %5, align 4
  br label %24

24:                                               ; preds = %20, %18
  %25 = load i32, i32* %5, align 4
  %26 = icmp eq i32 %25, 1
  br i1 %26, label %27, label %29

27:                                               ; preds = %24
  %28 = call i32 (i8*, ...) @printf(i8* getelementptr inbounds ([5 x i8], [5 x i8]* @.str.2, i64 0, i64 0))
  br label %35

29:                                               ; preds = %24
  %30 = load i32, i32* %5, align 4
  %31 = icmp eq i32 %30, 0
  br i1 %31, label %32, label %34

32:                                               ; preds = %29
  %33 = call i32 (i8*, ...) @printf(i8* getelementptr inbounds ([4 x i8], [4 x i8]* @.str.1, i64 0, i64 0))
  br label %34

34:                                               ; preds = %32, %29
  br label %35

35:                                               ; preds = %34, %27
  ret void
}

declare dso_local i32 @__isoc99_scanf(i8*, ...) #1

; Function Attrs: nounwind readonly
declare dso_local i64 @strlen(i8*) #2

declare dso_local i32 @printf(i8*, ...) #1

; Function Attrs: noinline nounwind uwtable
define dso_local i32 @check(i8* %0, i8* %1) #0 {
  %3 = alloca i8*, align 8
  %4 = alloca i8*, align 8
  %5 = alloca i32, align 4
  %6 = alloca i32, align 4
  %7 = alloca i32, align 4
  %8 = alloca [100 x i32], align 16
  %9 = alloca [100 x i32], align 16
  %10 = alloca i32, align 4
  %11 = alloca i32, align 4
  store i8* %0, i8** %3, align 8
  store i8* %1, i8** %4, align 8
  store i32 0, i32* %5, align 4
  store i32 0, i32* %6, align 4
  %12 = bitcast [100 x i32]* %8 to i8*
  call void @llvm.memset.p0i8.i64(i8* align 16 %12, i8 0, i64 400, i1 false)
  %13 = bitcast [100 x i32]* %9 to i8*
  call void @llvm.memset.p0i8.i64(i8* align 16 %13, i8 0, i64 400, i1 false)
  store i32 0, i32* %11, align 4
  %14 = load i8*, i8** %3, align 8
  %15 = call i64 @strlen(i8* %14) #4
  %16 = trunc i64 %15 to i32
  store i32 %16, i32* %10, align 4
  store i32 0, i32* %5, align 4
  br label %17

17:                                               ; preds = %51, %2
  %18 = load i32, i32* %5, align 4
  %19 = load i32, i32* %10, align 4
  %20 = icmp slt i32 %18, %19
  br i1 %20, label %21, label %54

21:                                               ; preds = %17
  store i32 0, i32* %6, align 4
  br label %22

22:                                               ; preds = %47, %21
  %23 = load i32, i32* %6, align 4
  %24 = load i32, i32* %10, align 4
  %25 = icmp slt i32 %23, %24
  br i1 %25, label %26, label %50

26:                                               ; preds = %22
  %27 = load i8*, i8** %3, align 8
  %28 = load i32, i32* %5, align 4
  %29 = sext i32 %28 to i64
  %30 = getelementptr inbounds i8, i8* %27, i64 %29
  %31 = load i8, i8* %30, align 1
  %32 = sext i8 %31 to i32
  %33 = load i8*, i8** %3, align 8
  %34 = load i32, i32* %6, align 4
  %35 = sext i32 %34 to i64
  %36 = getelementptr inbounds i8, i8* %33, i64 %35
  %37 = load i8, i8* %36, align 1
  %38 = sext i8 %37 to i32
  %39 = icmp eq i32 %32, %38
  br i1 %39, label %40, label %46

40:                                               ; preds = %26
  %41 = load i32, i32* %5, align 4
  %42 = sext i32 %41 to i64
  %43 = getelementptr inbounds [100 x i32], [100 x i32]* %8, i64 0, i64 %42
  %44 = load i32, i32* %43, align 4
  %45 = add nsw i32 %44, 1
  store i32 %45, i32* %43, align 4
  br label %46

46:                                               ; preds = %40, %26
  br label %47

47:                                               ; preds = %46
  %48 = load i32, i32* %6, align 4
  %49 = add nsw i32 %48, 1
  store i32 %49, i32* %6, align 4
  br label %22

50:                                               ; preds = %22
  br label %51

51:                                               ; preds = %50
  %52 = load i32, i32* %5, align 4
  %53 = add nsw i32 %52, 1
  store i32 %53, i32* %5, align 4
  br label %17

54:                                               ; preds = %17
  store i32 0, i32* %5, align 4
  br label %55

55:                                               ; preds = %89, %54
  %56 = load i32, i32* %5, align 4
  %57 = load i32, i32* %10, align 4
  %58 = icmp slt i32 %56, %57
  br i1 %58, label %59, label %92

59:                                               ; preds = %55
  store i32 0, i32* %6, align 4
  br label %60

60:                                               ; preds = %85, %59
  %61 = load i32, i32* %6, align 4
  %62 = load i32, i32* %10, align 4
  %63 = icmp slt i32 %61, %62
  br i1 %63, label %64, label %88

64:                                               ; preds = %60
  %65 = load i8*, i8** %4, align 8
  %66 = load i32, i32* %5, align 4
  %67 = sext i32 %66 to i64
  %68 = getelementptr inbounds i8, i8* %65, i64 %67
  %69 = load i8, i8* %68, align 1
  %70 = sext i8 %69 to i32
  %71 = load i8*, i8** %4, align 8
  %72 = load i32, i32* %6, align 4
  %73 = sext i32 %72 to i64
  %74 = getelementptr inbounds i8, i8* %71, i64 %73
  %75 = load i8, i8* %74, align 1
  %76 = sext i8 %75 to i32
  %77 = icmp eq i32 %70, %76
  br i1 %77, label %78, label %84

78:                                               ; preds = %64
  %79 = load i32, i32* %5, align 4
  %80 = sext i32 %79 to i64
  %81 = getelementptr inbounds [100 x i32], [100 x i32]* %9, i64 0, i64 %80
  %82 = load i32, i32* %81, align 4
  %83 = add nsw i32 %82, 1
  store i32 %83, i32* %81, align 4
  br label %84

84:                                               ; preds = %78, %64
  br label %85

85:                                               ; preds = %84
  %86 = load i32, i32* %6, align 4
  %87 = add nsw i32 %86, 1
  store i32 %87, i32* %6, align 4
  br label %60

88:                                               ; preds = %60
  br label %89

89:                                               ; preds = %88
  %90 = load i32, i32* %5, align 4
  %91 = add nsw i32 %90, 1
  store i32 %91, i32* %5, align 4
  br label %55

92:                                               ; preds = %55
  store i32 0, i32* %5, align 4
  br label %93

93:                                               ; preds = %135, %92
  %94 = load i32, i32* %5, align 4
  %95 = load i32, i32* %10, align 4
  %96 = icmp slt i32 %94, %95
  br i1 %96, label %97, label %138

97:                                               ; preds = %93
  store i32 0, i32* %6, align 4
  br label %98

98:                                               ; preds = %131, %97
  %99 = load i32, i32* %6, align 4
  %100 = load i32, i32* %10, align 4
  %101 = icmp slt i32 %99, %100
  br i1 %101, label %102, label %134

102:                                              ; preds = %98
  %103 = load i8*, i8** %3, align 8
  %104 = load i32, i32* %5, align 4
  %105 = sext i32 %104 to i64
  %106 = getelementptr inbounds i8, i8* %103, i64 %105
  %107 = load i8, i8* %106, align 1
  %108 = sext i8 %107 to i32
  %109 = load i8*, i8** %4, align 8
  %110 = load i32, i32* %6, align 4
  %111 = sext i32 %110 to i64
  %112 = getelementptr inbounds i8, i8* %109, i64 %111
  %113 = load i8, i8* %112, align 1
  %114 = sext i8 %113 to i32
  %115 = icmp eq i32 %108, %114
  br i1 %115, label %116, label %130

116:                                              ; preds = %102
  %117 = load i32, i32* %5, align 4
  %118 = sext i32 %117 to i64
  %119 = getelementptr inbounds [100 x i32], [100 x i32]* %8, i64 0, i64 %118
  %120 = load i32, i32* %119, align 4
  %121 = load i32, i32* %6, align 4
  %122 = sext i32 %121 to i64
  %123 = getelementptr inbounds [100 x i32], [100 x i32]* %9, i64 0, i64 %122
  %124 = load i32, i32* %123, align 4
  %125 = icmp eq i32 %120, %124
  br i1 %125, label %126, label %129

126:                                              ; preds = %116
  %127 = load i32, i32* %11, align 4
  %128 = add nsw i32 %127, 1
  store i32 %128, i32* %11, align 4
  br label %134

129:                                              ; preds = %116
  br label %130

130:                                              ; preds = %129, %102
  br label %131

131:                                              ; preds = %130
  %132 = load i32, i32* %6, align 4
  %133 = add nsw i32 %132, 1
  store i32 %133, i32* %6, align 4
  br label %98

134:                                              ; preds = %126, %98
  br label %135

135:                                              ; preds = %134
  %136 = load i32, i32* %5, align 4
  %137 = add nsw i32 %136, 1
  store i32 %137, i32* %5, align 4
  br label %93

138:                                              ; preds = %93
  %139 = load i32, i32* %11, align 4
  %140 = load i32, i32* %10, align 4
  %141 = icmp sge i32 %139, %140
  br i1 %141, label %142, label %143

142:                                              ; preds = %138
  store i32 1, i32* %7, align 4
  br label %144

143:                                              ; preds = %138
  store i32 0, i32* %7, align 4
  br label %144

144:                                              ; preds = %143, %142
  %145 = load i32, i32* %7, align 4
  ret i32 %145
}

; Function Attrs: argmemonly nounwind willreturn
declare void @llvm.memset.p0i8.i64(i8* nocapture writeonly, i8, i64, i1 immarg) #3


!llvm.module.flags = !{!0}
!llvm.ident = !{!1}

!0 = !{i32 1, !"wchar_size", i32 4}
!1 = !{!"clang version 10.0.0-4ubuntu1 "}
